ARM GAS  C:\Users\BILLSH~1\AppData\Local\Temp\ccaQ1rdn.s 			page 1


   1              		.cpu cortex-m0plus
   2              		.fpu softvfp
   3              		.eabi_attribute 20, 1
   4              		.eabi_attribute 21, 1
   5              		.eabi_attribute 23, 3
   6              		.eabi_attribute 24, 1
   7              		.eabi_attribute 25, 1
   8              		.eabi_attribute 26, 1
   9              		.eabi_attribute 30, 1
  10              		.eabi_attribute 34, 0
  11              		.eabi_attribute 18, 4
  12              		.code	16
  13              		.file	"main.c"
  14              		.text
  15              	.Ltext0:
  16              		.cfi_sections	.debug_frame
  17              		.section	.text.InitResources,"ax",%progbits
  18              		.align	2
  19              		.global	InitResources
  20              		.code	16
  21              		.thumb_func
  22              		.type	InitResources, %function
  23              	InitResources:
  24              	.LFB36:
  25              		.file 1 "main.c"
   1:main.c        **** /******************************************************************************
   2:main.c        **** * Project Name      : CE211321_Temperature_Sensing
   3:main.c        **** * Version           : 1.0
   4:main.c        **** * Device Used       : CY8C4A45LQI-L483
   5:main.c        **** * Software Used     : PSoC Creator 3.3 CP3
   6:main.c        **** * Compiler Used     : ARM GCC 4.9.3 
   7:main.c        **** * Related Hardware  : CY8CKIT-048 PSoC Analog Coprocessor Pioneer Kit 
   8:main.c        **** *******************************************************************************
   9:main.c        **** * Copyright (2016), Cypress Semiconductor Corporation.
  10:main.c        **** *******************************************************************************
  11:main.c        **** * This software, including source code, documentation and related materials
  12:main.c        **** * ("Software") is owned by Cypress Semiconductor Corporation (Cypress) and is
  13:main.c        **** * protected by and subject to worldwide patent protection (United States and 
  14:main.c        **** * foreign), United States copyright laws and international treaty provisions. 
  15:main.c        **** * Cypress hereby grants to licensee a personal, non-exclusive, non-transferable
  16:main.c        **** * license to copy, use, modify, create derivative works of, and compile the 
  17:main.c        **** * Cypress source code and derivative works for the sole purpose of creating 
  18:main.c        **** * custom software in support of licensee product, such licensee product to be
  19:main.c        **** * used only in conjunction with Cypress's integrated circuit as specified in the
  20:main.c        **** * applicable agreement. Any reproduction, modification, translation, compilation,
  21:main.c        **** * or representation of this Software except as specified above is prohibited 
  22:main.c        **** * without the express written permission of Cypress.
  23:main.c        **** * 
  24:main.c        **** * Disclaimer: THIS SOFTWARE IS PROVIDED AS-IS, WITH NO WARRANTY OF ANY KIND, 
  25:main.c        **** * EXPRESS OR IMPLIED, INCLUDING, BUT NOT LIMITED TO, NONINFRINGEMENT, IMPLIED 
  26:main.c        **** * WARRANTIES OF MERCHANTABILITY AND FITNESS FOR A PARTICULAR PURPOSE.
  27:main.c        **** * Cypress reserves the right to make changes to the Software without notice. 
  28:main.c        **** * Cypress does not assume any liability arising out of the application or use
  29:main.c        **** * of Software or any product or circuit described in the Software. Cypress does
  30:main.c        **** * not authorize its products for use as critical components in any products 
  31:main.c        **** * where a malfunction or failure may reasonably be expected to result in 
  32:main.c        **** * significant injury or death ("ACTIVE Risk Product"). By including Cypress's 
ARM GAS  C:\Users\BILLSH~1\AppData\Local\Temp\ccaQ1rdn.s 			page 2


  33:main.c        **** * product in a ACTIVE Risk Product, the manufacturer of such system or application
  34:main.c        **** * assumes all risk of such use and in doing so indemnifies Cypress against all
  35:main.c        **** * liability. Use of this Software may be limited by and subject to the applicable
  36:main.c        **** * Cypress software license agreement.
  37:main.c        **** *******************************************************************************/
  38:main.c        **** /*******************************************************************************
  39:main.c        **** * Theory of Operation: This code example demonstrates how to implement an analog 
  40:main.c        **** * front end (AFE) for a thermistor using the PSoC Analog Coprocessor. The measured 
  41:main.c        **** * thermistor resistance and the calculated temperature are sent over I2C. The RGB 
  42:main.c        **** * LED is controlled based on the calculated temperature value.
  43:main.c        **** *******************************************************************************/
  44:main.c        **** 
  45:main.c        **** /* Header File Includes */
  46:main.c        **** #include <project.h>
  47:main.c        **** 
  48:main.c        **** #define ADC_CHANNEL_VREF			(0u)
  49:main.c        **** #define ADC_CHANNEL_VTH				(1u)
  50:main.c        **** #define LED_ON						(0u)
  51:main.c        **** #define LED_OFF						(1u)
  52:main.c        **** #define TEMPERATURE_THRESHOLD_HIGH	(3000)
  53:main.c        **** #define TEMPERATURE_THRESHOLD_LOW	(2500)
  54:main.c        **** /* IIR Filter coefficients for each signal */
  55:main.c        **** /* Cut off frequency = fs/(2 * pi * iir_filter_constant).  In this project fs ~= 1 ksps.
  56:main.c        **** This results in a cut-off frequency of 4.97 Hz.  We are using IIR filter as FIR requires 
  57:main.c        **** more order of filter to get the same cut-off frequency*/
  58:main.c        **** #define FILTER_COEFFICIENT_TEMPERATURE	(32u)
  59:main.c        **** /* EzI2C Read/Write Boundary */
  60:main.c        **** #define READ_WRITE_BOUNDARY         (0u)
  61:main.c        **** 
  62:main.c        **** /* Structure that holds the temperature sensor (thermistor) data                 */
  63:main.c        **** /* Use __attribute__((packed)) for GCC and MDK compilers to pack structures      */
  64:main.c        **** /* For other compilers use the corresponding directive.                          */
  65:main.c        **** /* For example, for IAR use the following directive                              */
  66:main.c        **** /* typedef __packed struct {..}struct_name;                                      */
  67:main.c        **** typedef struct __attribute__((packed))
  68:main.c        **** {
  69:main.c        **** 	int16 Vth;					/* Voltage across thermistor */
  70:main.c        **** 	uint16 Rth;					/* Thermistor resistance */
  71:main.c        **** 	int16 temperature;			/* Measured temperature */
  72:main.c        **** }temperature_sensor_data;
  73:main.c        **** 
  74:main.c        **** /* Function Prototypes */
  75:main.c        **** void InitResources(void);
  76:main.c        **** 
  77:main.c        **** /* Declare the i2cBuffer to exchange sensor data between Bridge Control 
  78:main.c        **** Panel (BCP) and PSoC Analog Coprocessor */
  79:main.c        **** temperature_sensor_data i2cBuffer = {0, 0, 0};
  80:main.c        **** 
  81:main.c        **** /*******************************************************************************
  82:main.c        **** * Function Name: main
  83:main.c        **** ********************************************************************************
  84:main.c        **** *
  85:main.c        **** * Summary:
  86:main.c        **** *  This function initializes all the resources, and in an infinite loop, measures the temperature f
  87:main.c        **** *  readings and to send the data over I2C.
  88:main.c        **** *
  89:main.c        **** * Parameters:
ARM GAS  C:\Users\BILLSH~1\AppData\Local\Temp\ccaQ1rdn.s 			page 3


  90:main.c        **** *  None
  91:main.c        **** *
  92:main.c        **** * Return:
  93:main.c        **** *  int
  94:main.c        **** *
  95:main.c        **** * Side Effects:
  96:main.c        **** *   None
  97:main.c        **** *******************************************************************************/
  98:main.c        **** int main()
  99:main.c        **** {
 100:main.c        **** 
 101:main.c        ****     /* Variables to hold the the ADC readings */
 102:main.c        ****     int16 adcResultVREF, adcResultVTH;
 103:main.c        ****     
 104:main.c        ****     /* Filter input and output variables for Vref and Vth measurements */
 105:main.c        ****     int16 filterOutputVref=0;
 106:main.c        ****     int16 filterOutputVth=0;
 107:main.c        ****     
 108:main.c        ****     /* Variables to hold calculated resistance and temperature */
 109:main.c        ****     int16 thermistorResistance, temperature;
 110:main.c        ****     
 111:main.c        ****     /* Variable to store the status returned by CyEnterCriticalSection()*/
 112:main.c        ****     uint8 interruptState = 0;
 113:main.c        ****     
 114:main.c        ****     /* Enable global interrupts */
 115:main.c        ****     CyGlobalIntEnable;
 116:main.c        ****     
 117:main.c        ****     /* Initialize hardware resources */
 118:main.c        ****     InitResources();
 119:main.c        **** 
 120:main.c        ****     /* Infinite Loop */
 121:main.c        ****     for(;;)
 122:main.c        ****     {
 123:main.c        ****         /* Check if the ADC data is ready */
 124:main.c        ****         if(ADC_IsEndConversion(ADC_RETURN_STATUS))
 125:main.c        ****         {
 126:main.c        ****             /* Read the ADC result for reference and thermistor voltages */
 127:main.c        ****             adcResultVREF = ADC_GetResult16(ADC_CHANNEL_VREF);
 128:main.c        ****             adcResultVTH = ADC_GetResult16(ADC_CHANNEL_VTH);
 129:main.c        ****             
 130:main.c        ****             /* Low pass filter the measured ADC counts of Vref */            
 131:main.c        ****             filterOutputVref = (adcResultVREF + (FILTER_COEFFICIENT_TEMPERATURE - 1) * filterOutput
 132:main.c        ****                     
 133:main.c        ****             /* Low pass filter the measured ADC counts of Vth */         
 134:main.c        ****             filterOutputVth = (adcResultVTH + (FILTER_COEFFICIENT_TEMPERATURE - 1) * filterOutputVt
 135:main.c        ****                         
 136:main.c        ****             /* Calculate thermistor resistance */
 137:main.c        ****             thermistorResistance = Thermistor_GetResistance(filterOutputVref, filterOutputVth);    
 138:main.c        ****             
 139:main.c        ****             /* Calculate temperature in degree Celsius using the Component API */
 140:main.c        ****             temperature = Thermistor_GetTemperature(thermistorResistance);
 141:main.c        ****             
 142:main.c        ****             /* Turn ON Blue LED if Temperature is <= 25째C */ 
 143:main.c        ****             if (temperature <= TEMPERATURE_THRESHOLD_LOW)
 144:main.c        ****             {
 145:main.c        ****                 Pin_LED_Blue_Write(LED_ON);
 146:main.c        ****                 Pin_LED_Red_Write(LED_OFF);
ARM GAS  C:\Users\BILLSH~1\AppData\Local\Temp\ccaQ1rdn.s 			page 4


 147:main.c        ****             }
 148:main.c        ****             /* Turn ON both Blue and Red LEDs if the temperature is >25째C and <=30째C */
 149:main.c        ****             else if ((temperature > TEMPERATURE_THRESHOLD_LOW) && (temperature < TEMPERATURE_THRESH
 150:main.c        ****             {
 151:main.c        ****                 Pin_LED_Blue_Write(LED_ON);
 152:main.c        ****                 Pin_LED_Red_Write(LED_ON);
 153:main.c        ****             }
 154:main.c        ****             /* Turn ON Red LED if temperature is >30째C */
 155:main.c        ****             else 
 156:main.c        ****             {
 157:main.c        ****                 Pin_LED_Blue_Write(LED_OFF);
 158:main.c        ****                 Pin_LED_Red_Write(LED_ON);
 159:main.c        ****             }   
 160:main.c        ****             
 161:main.c        **** 			/* Enter critical section to check if I2C bus is busy or not */
 162:main.c        ****             interruptState = CyEnterCriticalSection();
 163:main.c        ****             
 164:main.c        ****         	if(!(EZI2C_EzI2CGetActivity() & EZI2C_EZI2C_STATUS_BUSY))
 165:main.c        ****         	{
 166:main.c        ****                 /* Update I2C Buffer */
 167:main.c        ****                 i2cBuffer.Rth = thermistorResistance;
 168:main.c        ****                 i2cBuffer.temperature = temperature;
 169:main.c        ****                 i2cBuffer.Vth = filterOutputVth;
 170:main.c        ****             }
 171:main.c        **** 			
 172:main.c        **** 			/* Exit critical section */
 173:main.c        ****             CyExitCriticalSection(interruptState);
 174:main.c        ****         }
 175:main.c        ****     }
 176:main.c        **** }
 177:main.c        **** 
 178:main.c        **** /*******************************************************************************
 179:main.c        **** * Function Name: void InitResources(void)
 180:main.c        **** ********************************************************************************
 181:main.c        **** *
 182:main.c        **** * Summary:
 183:main.c        **** *  This function initializes all the hardware resources
 184:main.c        **** *
 185:main.c        **** * Parameters:
 186:main.c        **** *  None
 187:main.c        **** *
 188:main.c        **** * Return:
 189:main.c        **** *  None
 190:main.c        **** *
 191:main.c        **** * Side Effects:
 192:main.c        **** *   None
 193:main.c        **** *******************************************************************************/
 194:main.c        **** void InitResources(void)
 195:main.c        **** {
  26              		.loc 1 195 0
  27              		.cfi_startproc
  28 0000 08B5     		push	{r3, lr}
  29              		.cfi_def_cfa_offset 8
  30              		.cfi_offset 3, -8
  31              		.cfi_offset 14, -4
 196:main.c        ****     /* Start EZI2C Slave Component and initialize buffer */
 197:main.c        ****     EZI2C_Start();
ARM GAS  C:\Users\BILLSH~1\AppData\Local\Temp\ccaQ1rdn.s 			page 5


  32              		.loc 1 197 0
  33 0002 FFF7FEFF 		bl	EZI2C_Start
  34              	.LVL0:
 198:main.c        ****     EZI2C_EzI2CSetBuffer1(sizeof(i2cBuffer), READ_WRITE_BOUNDARY, (uint8 *)&i2cBuffer);
  35              		.loc 1 198 0
  36 0006 0620     		mov	r0, #6
  37 0008 0021     		mov	r1, #0
  38 000a 074A     		ldr	r2, .L2
  39 000c FFF7FEFF 		bl	EZI2C_EzI2CSetBuffer1
  40              	.LVL1:
 199:main.c        ****         
 200:main.c        ****     /* Start the Scanning SAR ADC Component and start conversion */
 201:main.c        ****     ADC_Start();
  41              		.loc 1 201 0
  42 0010 FFF7FEFF 		bl	ADC_Start
  43              	.LVL2:
 202:main.c        ****     ADC_StartConvert();
  44              		.loc 1 202 0
  45 0014 FFF7FEFF 		bl	ADC_StartConvert
  46              	.LVL3:
 203:main.c        ****     
 204:main.c        ****     /* Start Reference buffer */
 205:main.c        ****     VrefBuffer_Start();
  47              		.loc 1 205 0
  48 0018 FFF7FEFF 		bl	VrefBuffer_Start
  49              	.LVL4:
 206:main.c        ****     
 207:main.c        ****     /* Start Programmable Voltage Reference */
 208:main.c        ****     PVref_Start();
  50              		.loc 1 208 0
  51 001c FFF7FEFF 		bl	PVref_Start
  52              	.LVL5:
 209:main.c        ****     
 210:main.c        ****     /* Enable Programmable Voltage Reference */
 211:main.c        ****     PVref_Enable();
  53              		.loc 1 211 0
  54 0020 FFF7FEFF 		bl	PVref_Enable
  55              	.LVL6:
 212:main.c        **** }
  56              		.loc 1 212 0
  57              		@ sp needed
  58 0024 08BD     		pop	{r3, pc}
  59              	.L3:
  60 0026 C046     		.align	2
  61              	.L2:
  62 0028 00000000 		.word	.LANCHOR0
  63              		.cfi_endproc
  64              	.LFE36:
  65              		.size	InitResources, .-InitResources
  66              		.section	.text.main,"ax",%progbits
  67              		.align	2
  68              		.global	main
  69              		.code	16
  70              		.thumb_func
  71              		.type	main, %function
  72              	main:
  73              	.LFB35:
ARM GAS  C:\Users\BILLSH~1\AppData\Local\Temp\ccaQ1rdn.s 			page 6


  99:main.c        **** 
  74              		.loc 1 99 0
  75              		.cfi_startproc
  76 0000 F0B5     		push	{r4, r5, r6, r7, lr}
  77              		.cfi_def_cfa_offset 20
  78              		.cfi_offset 4, -20
  79              		.cfi_offset 5, -16
  80              		.cfi_offset 6, -12
  81              		.cfi_offset 7, -8
  82              		.cfi_offset 14, -4
  83 0002 83B0     		sub	sp, sp, #12
  84              		.cfi_def_cfa_offset 32
  85              	.LVL7:
 115:main.c        ****     
  86              		.loc 1 115 0
  87              	@ 115 "main.c" 1
  88 0004 62B6     		CPSIE   i
  89              	@ 0 "" 2
 118:main.c        **** 
  90              		.loc 1 118 0
  91              		.code	16
  92 0006 FFF7FEFF 		bl	InitResources
  93              	.LVL8:
 106:main.c        ****     
  94              		.loc 1 106 0
  95 000a 0024     		mov	r4, #0
 105:main.c        ****     int16 filterOutputVth=0;
  96              		.loc 1 105 0
  97 000c 0025     		mov	r5, #0
  98              	.LVL9:
  99              	.L5:
 124:main.c        ****         {
 100              		.loc 1 124 0
 101 000e 0120     		mov	r0, #1
 102 0010 FFF7FEFF 		bl	ADC_IsEndConversion
 103              	.LVL10:
 104 0014 ADB2     		uxth	r5, r5
 105 0016 A4B2     		uxth	r4, r4
 106 0018 0028     		cmp	r0, #0
 107 001a F8D0     		beq	.L5
 127:main.c        ****             adcResultVTH = ADC_GetResult16(ADC_CHANNEL_VTH);
 108              		.loc 1 127 0
 109 001c 0020     		mov	r0, #0
 110 001e FFF7FEFF 		bl	ADC_GetResult16
 111              	.LVL11:
 112 0022 061C     		mov	r6, r0
 113              	.LVL12:
 128:main.c        ****             
 114              		.loc 1 128 0
 115 0024 0120     		mov	r0, #1
 116 0026 FFF7FEFF 		bl	ADC_GetResult16
 117              	.LVL13:
 131:main.c        ****                     
 118              		.loc 1 131 0
 119 002a 2DB2     		sxth	r5, r5
 120              	.LVL14:
 121 002c 6B01     		lsl	r3, r5, #5
ARM GAS  C:\Users\BILLSH~1\AppData\Local\Temp\ccaQ1rdn.s 			page 7


 122 002e 5D1B     		sub	r5, r3, r5
 123 0030 7519     		add	r5, r6, r5
 124 0032 6D09     		lsr	r5, r5, #5
 125 0034 ADB2     		uxth	r5, r5
 126              	.LVL15:
 134:main.c        ****                         
 127              		.loc 1 134 0
 128 0036 24B2     		sxth	r4, r4
 129              	.LVL16:
 130 0038 6301     		lsl	r3, r4, #5
 131 003a 1C1B     		sub	r4, r3, r4
 132 003c 0419     		add	r4, r0, r4
 133 003e 6409     		lsr	r4, r4, #5
 134 0040 A4B2     		uxth	r4, r4
 135              	.LVL17:
 137:main.c        ****             
 136              		.loc 1 137 0
 137 0042 28B2     		sxth	r0, r5
 138              	.LVL18:
 139 0044 21B2     		sxth	r1, r4
 140 0046 FFF7FEFF 		bl	Thermistor_GetResistance
 141              	.LVL19:
 142 004a 061C     		mov	r6, r0
 143              	.LVL20:
 140:main.c        ****             
 144              		.loc 1 140 0
 145 004c 00B2     		sxth	r0, r0
 146 004e FFF7FEFF 		bl	Thermistor_GetTemperature
 147              	.LVL21:
 148 0052 071E     		sub	r7, r0, #0
 149              	.LVL22:
 143:main.c        ****             {
 150              		.loc 1 143 0
 151 0054 164B     		ldr	r3, .L11
 152 0056 9F42     		cmp	r7, r3
 153 0058 06DC     		bgt	.L6
 145:main.c        ****                 Pin_LED_Red_Write(LED_OFF);
 154              		.loc 1 145 0
 155 005a 0020     		mov	r0, #0
 156              	.LVL23:
 157 005c FFF7FEFF 		bl	Pin_LED_Blue_Write
 158              	.LVL24:
 146:main.c        ****             }
 159              		.loc 1 146 0
 160 0060 0120     		mov	r0, #1
 161 0062 FFF7FEFF 		bl	Pin_LED_Red_Write
 162              	.LVL25:
 163 0066 13E0     		b	.L7
 164              	.LVL26:
 165              	.L6:
 149:main.c        ****             {
 166              		.loc 1 149 0
 167 0068 124B     		ldr	r3, .L11+4
 168 006a C318     		add	r3, r0, r3
 169 006c 9BB2     		uxth	r3, r3
 170 006e F922     		mov	r2, #249
 171 0070 5200     		lsl	r2, r2, #1
ARM GAS  C:\Users\BILLSH~1\AppData\Local\Temp\ccaQ1rdn.s 			page 8


 172 0072 9342     		cmp	r3, r2
 173 0074 06D8     		bhi	.L8
 151:main.c        ****                 Pin_LED_Red_Write(LED_ON);
 174              		.loc 1 151 0
 175 0076 0020     		mov	r0, #0
 176              	.LVL27:
 177 0078 FFF7FEFF 		bl	Pin_LED_Blue_Write
 178              	.LVL28:
 152:main.c        ****             }
 179              		.loc 1 152 0
 180 007c 0020     		mov	r0, #0
 181 007e FFF7FEFF 		bl	Pin_LED_Red_Write
 182              	.LVL29:
 183 0082 05E0     		b	.L7
 184              	.LVL30:
 185              	.L8:
 157:main.c        ****                 Pin_LED_Red_Write(LED_ON);
 186              		.loc 1 157 0
 187 0084 0120     		mov	r0, #1
 188              	.LVL31:
 189 0086 FFF7FEFF 		bl	Pin_LED_Blue_Write
 190              	.LVL32:
 158:main.c        ****             }   
 191              		.loc 1 158 0
 192 008a 0020     		mov	r0, #0
 193 008c FFF7FEFF 		bl	Pin_LED_Red_Write
 194              	.LVL33:
 195              	.L7:
 162:main.c        ****             
 196              		.loc 1 162 0
 197 0090 FFF7FEFF 		bl	CyEnterCriticalSection
 198              	.LVL34:
 199 0094 0190     		str	r0, [sp, #4]
 200              	.LVL35:
 164:main.c        ****         	{
 201              		.loc 1 164 0
 202 0096 FFF7FEFF 		bl	EZI2C_EzI2CGetActivity
 203              	.LVL36:
 204 009a 8306     		lsl	r3, r0, #26
 205 009c 03D4     		bmi	.L9
 167:main.c        ****                 i2cBuffer.temperature = temperature;
 206              		.loc 1 167 0
 207 009e 064B     		ldr	r3, .L11+8
 208 00a0 5E80     		strh	r6, [r3, #2]
 168:main.c        ****                 i2cBuffer.Vth = filterOutputVth;
 209              		.loc 1 168 0
 210 00a2 9F80     		strh	r7, [r3, #4]
 169:main.c        ****             }
 211              		.loc 1 169 0
 212 00a4 1C80     		strh	r4, [r3]
 213              	.L9:
 173:main.c        ****         }
 214              		.loc 1 173 0
 215 00a6 0198     		ldr	r0, [sp, #4]
 216 00a8 FFF7FEFF 		bl	CyExitCriticalSection
 217              	.LVL37:
 218 00ac AFE7     		b	.L5
ARM GAS  C:\Users\BILLSH~1\AppData\Local\Temp\ccaQ1rdn.s 			page 9


 219              	.L12:
 220 00ae C046     		.align	2
 221              	.L11:
 222 00b0 C4090000 		.word	2500
 223 00b4 3BF6FFFF 		.word	-2501
 224 00b8 00000000 		.word	.LANCHOR0
 225              		.cfi_endproc
 226              	.LFE35:
 227              		.size	main, .-main
 228              		.global	i2cBuffer
 229              		.bss
 230              		.align	2
 231              		.set	.LANCHOR0,. + 0
 232              		.type	i2cBuffer, %object
 233              		.size	i2cBuffer, 6
 234              	i2cBuffer:
 235 0000 00000000 		.space	6
 235      0000
 236 0006 0000     		.text
 237              	.Letext0:
 238              		.file 2 "Generated_Source\\PSoC4/cytypes.h"
 239              		.file 3 "Generated_Source\\PSoC4/EZI2C.h"
 240              		.file 4 "Generated_Source\\PSoC4/ADC.h"
 241              		.file 5 "Generated_Source\\PSoC4/VrefBuffer.h"
 242              		.file 6 "Generated_Source\\PSoC4/PVref.h"
 243              		.file 7 "Generated_Source\\PSoC4/Thermistor.h"
 244              		.file 8 "Generated_Source\\PSoC4/EZI2C_EZI2C.h"
 245              		.file 9 "Generated_Source\\PSoC4/Pin_LED_Blue.h"
 246              		.file 10 "Generated_Source\\PSoC4/Pin_LED_Red.h"
 247              		.file 11 "Generated_Source\\PSoC4/CyLib.h"